; Function Attrs: nofree norecurse nosync nounwind memory(readwrite, inaccessiblemem: none) uwtable
define hidden void @hwloc_internal_memattrs_need_refresh(ptr noundef readonly captures(none) %0) local_unnamed_addr #14 {
  %2 = getelementptr inbounds nuw i8, ptr %0, i64 748
  %3 = load i32, ptr %2, align 4, !tbaa !3
  %.not7 = icmp eq i32 %3, 0
  br i1 %.not7, label %._crit_edge, label %.lr.ph

.lr.ph:                                           ; preds = %1
  %4 = getelementptr inbounds nuw i8, ptr %0, i64 752
  %5 = load ptr, ptr %4, align 8, !tbaa !31
  %wide.trip.count = zext i32 %3 to i64
  br label %6

6:                                                ; preds = %.lr.ph, %12
  %indvars.iv = phi i64 [ 0, %.lr.ph ], [ %indvars.iv.next, %12 ]
  %7 = getelementptr inbounds nuw %struct.hwloc_internal_memattr_s, ptr %5, i64 %indvars.iv, i32 2
  %8 = load i32, ptr %7, align 8, !tbaa !37
  %9 = and i32 %8, 4
  %.not = icmp eq i32 %9, 0
  br i1 %.not, label %10, label %12

10:                                               ; preds = %6
  %11 = and i32 %8, -7
  store i32 %11, ptr %7, align 8, !tbaa !37
  br label %12

12:                                               ; preds = %6, %10
  %indvars.iv.next = add nuw nsw i64 %indvars.iv, 1
  %exitcond.not = icmp eq i64 %indvars.iv.next, %wide.trip.count
  br i1 %exitcond.not, label %._crit_edge, label %6, !llvm.loop !84

._crit_edge:                                      ; preds = %12, %1
  ret void
}